; Function Attrs: nofree norecurse nosync nounwind memory(argmem: readwrite) uwtable
define internal void @sbr_hf_apply_noise_3(ptr noundef captures(none) %0, ptr noundef readonly captures(none) %1, ptr noundef readonly captures(none) %2, i32 noundef %3, i32 noundef %4, i32 noundef %5) #1 {
  %7 = icmp sgt i32 %5, 0
  br i1 %7, label %.lr.ph.preheader, label %sbr_hf_apply_noise.exit

.lr.ph.preheader:                                 ; preds = %6
  %8 = shl i32 %4, 1
  %9 = and i32 %8, 2
  %10 = sub nsw i32 1, %9
  %11 = sitofp i32 %10 to float
  %12 = fneg nsz float %11
  %wide.trip.count = zext nneg i32 %5 to i64
  br label %.lr.ph

.lr.ph:                                           ; preds = %.lr.ph.preheader, %35
  %indvars.iv = phi i64 [ 0, %.lr.ph.preheader ], [ %indvars.iv.next, %35 ]
  %.034.i7 = phi i32 [ %3, %.lr.ph.preheader ], [ %18, %35 ]
  %.035.i6 = phi float [ %12, %.lr.ph.preheader ], [ %36, %35 ]
  %13 = getelementptr inbounds nuw [2 x float], ptr %0, i64 %indvars.iv
  %14 = load float, ptr %13, align 4, !tbaa !19
  %15 = getelementptr inbounds nuw i8, ptr %13, i64 4
  %16 = load float, ptr %15, align 4, !tbaa !19
  %17 = add nsw i32 %.034.i7, 1
  %18 = and i32 %17, 511
  %19 = getelementptr inbounds nuw float, ptr %1, i64 %indvars.iv
  %20 = load float, ptr %19, align 4, !tbaa !19
  %21 = fcmp nsz une float %20, 0.000000e+00
  br i1 %21, label %22, label %25

22:                                               ; preds = %.lr.ph
  %23 = tail call nsz float @llvm.fmuladd.f32(float %20, float 0.000000e+00, float %14)
  %24 = tail call nsz float @llvm.fmuladd.f32(float %20, float %.035.i6, float %16)
  br label %35

25:                                               ; preds = %.lr.ph
  %26 = getelementptr inbounds nuw float, ptr %2, i64 %indvars.iv
  %27 = load float, ptr %26, align 4, !tbaa !19
  %28 = zext nneg i32 %18 to i64
  %29 = getelementptr inbounds nuw [0 x [2 x float]], ptr @ff_sbr_noise_table, i64 0, i64 %28
  %30 = load float, ptr %29, align 8, !tbaa !19
  %31 = tail call nsz float @llvm.fmuladd.f32(float %27, float %30, float %14)
  %32 = getelementptr inbounds nuw i8, ptr %29, i64 4
  %33 = load float, ptr %32, align 4, !tbaa !19
  %34 = tail call nsz float @llvm.fmuladd.f32(float %27, float %33, float %16)
  br label %35

35:                                               ; preds = %25, %22
  %.032.i = phi nsz float [ %23, %22 ], [ %31, %25 ]
  %.0.i = phi nsz float [ %24, %22 ], [ %34, %25 ]
  store float %.032.i, ptr %13, align 4, !tbaa !19
  store float %.0.i, ptr %15, align 4, !tbaa !19
  %36 = fneg nsz float %.035.i6
  %indvars.iv.next = add nuw nsw i64 %indvars.iv, 1
  %exitcond.not = icmp eq i64 %indvars.iv.next, %wide.trip.count
  br i1 %exitcond.not, label %sbr_hf_apply_noise.exit, label %.lr.ph, !llvm.loop !33

sbr_hf_apply_noise.exit:                          ; preds = %35, %6
  ret void
}